target datalayout = "e-m:e-p270:32:32-p271:32:32-p272:64:64-i64:64-i128:128-f80:128-n8:16:32:64-S128"
target triple = "x86_64-unknown-linux-gnu"

%"class.zmq::encoder_base_t" = type { %"struct.zmq::i_encoder", ptr, i64, { i64, i64 }, i8, i64, ptr, ptr }
%"struct.zmq::i_encoder" = type { ptr }
%"class.zmq::v2_encoder_t" = type <{ %"class.zmq::encoder_base_t", [10 x i8], [6 x i8] }>
%"class.zmq::msg_t" = type { %union.anon }
%union.anon = type { %struct.anon }
%struct.anon = type { ptr, [34 x i8], i8, i8, i32, %"union.zmq::msg_t::group_t" }
%"union.zmq::msg_t::group_t" = type { %struct.anon.1 }
%struct.anon.1 = type { i8, ptr }

; Function Attrs: mustprogress nounwind uwtable
define linkonce_odr void @_ZN3zmq14encoder_base_tINS_12v2_encoder_tEE9next_stepEPvmMS1_FvvEb(ptr noundef nonnull align 8 dereferenceable(72) %this, ptr noundef %write_pos_, i64 noundef %to_write_, i64 %next_.coerce0, i64 %next_.coerce1, i1 noundef zeroext %new_msg_flag_) #1 comdat align 2 {
entry:
  %next_ = alloca { i64, i64 }, align 8
  %this.addr = alloca ptr, align 8
  %write_pos_.addr = alloca ptr, align 8
  %to_write_.addr = alloca i64, align 8
  %next_.addr = alloca { i64, i64 }, align 8
  %new_msg_flag_.addr = alloca i8, align 1
  %0 = getelementptr inbounds { i64, i64 }, ptr %next_, i32 0, i32 0
  store i64 %next_.coerce0, ptr %0, align 8
  %1 = getelementptr inbounds { i64, i64 }, ptr %next_, i32 0, i32 1
  store i64 %next_.coerce1, ptr %1, align 8
  %next_1 = load { i64, i64 }, ptr %next_, align 8
  store ptr %this, ptr %this.addr, align 8
  store ptr %write_pos_, ptr %write_pos_.addr, align 8
  store i64 %to_write_, ptr %to_write_.addr, align 8
  store { i64, i64 } %next_1, ptr %next_.addr, align 8
  %frombool = zext i1 %new_msg_flag_ to i8
  store i8 %frombool, ptr %new_msg_flag_.addr, align 1
  %this2 = load ptr, ptr %this.addr, align 8
  %2 = load ptr, ptr %write_pos_.addr, align 8
  %_write_pos = getelementptr inbounds %"class.zmq::encoder_base_t", ptr %this2, i32 0, i32 1
  store ptr %2, ptr %_write_pos, align 8
  %3 = load i64, ptr %to_write_.addr, align 8
  %_to_write = getelementptr inbounds %"class.zmq::encoder_base_t", ptr %this2, i32 0, i32 2
  store i64 %3, ptr %_to_write, align 8
  %4 = load { i64, i64 }, ptr %next_.addr, align 8
  %_next = getelementptr inbounds %"class.zmq::encoder_base_t", ptr %this2, i32 0, i32 3
  store { i64, i64 } %4, ptr %_next, align 8
  %5 = load i8, ptr %new_msg_flag_.addr, align 1
  %tobool = trunc i8 %5 to i1
  %_new_msg_flag = getelementptr inbounds %"class.zmq::encoder_base_t", ptr %this2, i32 0, i32 4
  %frombool3 = zext i1 %tobool to i8
  store i8 %frombool3, ptr %_new_msg_flag, align 8
  ret void
}

; Function Attrs: mustprogress nounwind uwtable
define linkonce_odr void @_ZN3zmq10put_uint64EPhm(ptr noundef %buffer_, i64 noundef %value_) #1 comdat {
entry:
  %buffer_.addr = alloca ptr, align 8
  %value_.addr = alloca i64, align 8
  store ptr %buffer_, ptr %buffer_.addr, align 8
  store i64 %value_, ptr %value_.addr, align 8
  %0 = load i64, ptr %value_.addr, align 8
  %shr = lshr i64 %0, 56
  %and = and i64 %shr, 255
  %conv = trunc i64 %and to i8
  %1 = load ptr, ptr %buffer_.addr, align 8
  %arrayidx = getelementptr inbounds i8, ptr %1, i64 0
  store i8 %conv, ptr %arrayidx, align 1
  %2 = load i64, ptr %value_.addr, align 8
  %shr1 = lshr i64 %2, 48
  %and2 = and i64 %shr1, 255
  %conv3 = trunc i64 %and2 to i8
  %3 = load ptr, ptr %buffer_.addr, align 8
  %arrayidx4 = getelementptr inbounds i8, ptr %3, i64 1
  store i8 %conv3, ptr %arrayidx4, align 1
  %4 = load i64, ptr %value_.addr, align 8
  %shr5 = lshr i64 %4, 40
  %and6 = and i64 %shr5, 255
  %conv7 = trunc i64 %and6 to i8
  %5 = load ptr, ptr %buffer_.addr, align 8
  %arrayidx8 = getelementptr inbounds i8, ptr %5, i64 2
  store i8 %conv7, ptr %arrayidx8, align 1
  %6 = load i64, ptr %value_.addr, align 8
  %shr9 = lshr i64 %6, 32
  %and10 = and i64 %shr9, 255
  %conv11 = trunc i64 %and10 to i8
  %7 = load ptr, ptr %buffer_.addr, align 8
  %arrayidx12 = getelementptr inbounds i8, ptr %7, i64 3
  store i8 %conv11, ptr %arrayidx12, align 1
  %8 = load i64, ptr %value_.addr, align 8
  %shr13 = lshr i64 %8, 24
  %and14 = and i64 %shr13, 255
  %conv15 = trunc i64 %and14 to i8
  %9 = load ptr, ptr %buffer_.addr, align 8
  %arrayidx16 = getelementptr inbounds i8, ptr %9, i64 4
  store i8 %conv15, ptr %arrayidx16, align 1
  %10 = load i64, ptr %value_.addr, align 8
  %shr17 = lshr i64 %10, 16
  %and18 = and i64 %shr17, 255
  %conv19 = trunc i64 %and18 to i8
  %11 = load ptr, ptr %buffer_.addr, align 8
  %arrayidx20 = getelementptr inbounds i8, ptr %11, i64 5
  store i8 %conv19, ptr %arrayidx20, align 1
  %12 = load i64, ptr %value_.addr, align 8
  %shr21 = lshr i64 %12, 8
  %and22 = and i64 %shr21, 255
  %conv23 = trunc i64 %and22 to i8
  %13 = load ptr, ptr %buffer_.addr, align 8
  %arrayidx24 = getelementptr inbounds i8, ptr %13, i64 6
  store i8 %conv23, ptr %arrayidx24, align 1
  %14 = load i64, ptr %value_.addr, align 8
  %and25 = and i64 %14, 255
  %conv26 = trunc i64 %and25 to i8
  %15 = load ptr, ptr %buffer_.addr, align 8
  %arrayidx27 = getelementptr inbounds i8, ptr %15, i64 7
  store i8 %conv26, ptr %arrayidx27, align 1
  ret void
}

; Function Attrs: mustprogress nounwind uwtable
define linkonce_odr noundef zeroext i1 @_ZNK3zmq5msg_t9is_cancelEv(ptr noundef nonnull align 8 dereferenceable(64) %this) #1 comdat align 2 {
entry:
  %this.addr = alloca ptr, align 8
  store ptr %this, ptr %this.addr, align 8
  %this1 = load ptr, ptr %this.addr, align 8
  %_u = getelementptr inbounds %"class.zmq::msg_t", ptr %this1, i32 0, i32 0
  %flags = getelementptr inbounds %struct.anon, ptr %_u, i32 0, i32 3
  %0 = load i8, ptr %flags, align 1
  %conv = zext i8 %0 to i32
  %and = and i32 %conv, 28
  %cmp = icmp eq i32 %and, 16
  ret i1 %cmp
}

; Function Attrs: mustprogress nounwind uwtable
define linkonce_odr noundef zeroext i1 @_ZNK3zmq5msg_t12is_subscribeEv(ptr noundef nonnull align 8 dereferenceable(64) %this) #1 comdat align 2 {
entry:
  %this.addr = alloca ptr, align 8
  store ptr %this, ptr %this.addr, align 8
  %this1 = load ptr, ptr %this.addr, align 8
  %_u = getelementptr inbounds %"class.zmq::msg_t", ptr %this1, i32 0, i32 0
  %flags = getelementptr inbounds %struct.anon, ptr %_u, i32 0, i32 3
  %0 = load i8, ptr %flags, align 1
  %conv = zext i8 %0 to i32
  %and = and i32 %conv, 28
  %cmp = icmp eq i32 %and, 12
  ret i1 %cmp
}

; Function Attrs: mustprogress nounwind uwtable
define linkonce_odr noundef ptr @_ZN3zmq14encoder_base_tINS_12v2_encoder_tEE11in_progressEv(ptr noundef nonnull align 8 dereferenceable(72) %this) #1 comdat align 2 {
entry:
  %this.addr = alloca ptr, align 8
  store ptr %this, ptr %this.addr, align 8
  %this1 = load ptr, ptr %this.addr, align 8
  %_in_progress = getelementptr inbounds %"class.zmq::encoder_base_t", ptr %this1, i32 0, i32 7
  %0 = load ptr, ptr %_in_progress, align 8
  ret ptr %0
}

; Function Attrs: mustprogress uwtable
define void @_ZN3zmq12v2_encoder_t13message_readyEv(ptr noundef nonnull align 8 dereferenceable(88) %this) #0 align 2 {
entry:
  %this.addr = alloca ptr, align 8
  %size = alloca i64, align 8
  %header_size = alloca i64, align 8
  %protocol_flags = alloca ptr, align 8
  %coerce = alloca { i64, i64 }, align 8
  store ptr %this, ptr %this.addr, align 8
  %this1 = load ptr, ptr %this.addr, align 8
  %call = call noundef ptr @_ZN3zmq14encoder_base_tINS_12v2_encoder_tEE11in_progressEv(ptr noundef nonnull align 8 dereferenceable(72) %this1)
  %call2 = call noundef i64 @_ZNK3zmq5msg_t4sizeEv(ptr noundef nonnull align 8 dereferenceable(64) %call)
  store i64 %call2, ptr %size, align 8
  store i64 2, ptr %header_size, align 8
  %_tmp_buf = getelementptr inbounds %"class.zmq::v2_encoder_t", ptr %this1, i32 0, i32 1
  %arrayidx = getelementptr inbounds [10 x i8], ptr %_tmp_buf, i64 0, i64 0
  store ptr %arrayidx, ptr %protocol_flags, align 8
  %0 = load ptr, ptr %protocol_flags, align 8
  store i8 0, ptr %0, align 1
  %call3 = call noundef ptr @_ZN3zmq14encoder_base_tINS_12v2_encoder_tEE11in_progressEv(ptr noundef nonnull align 8 dereferenceable(72) %this1)
  %call4 = call noundef zeroext i8 @_ZNK3zmq5msg_t5flagsEv(ptr noundef nonnull align 8 dereferenceable(64) %call3)
  %conv = zext i8 %call4 to i32
  %and = and i32 %conv, 1
  %tobool = icmp ne i32 %and, 0
  br i1 %tobool, label %if.then, label %if.end

if.then:                                          ; preds = %entry
  %1 = load ptr, ptr %protocol_flags, align 8
  %2 = load i8, ptr %1, align 1
  %conv5 = zext i8 %2 to i32
  %or = or i32 %conv5, 1
  %conv6 = trunc i32 %or to i8
  store i8 %conv6, ptr %1, align 1
  br label %if.end

if.end:                                           ; preds = %if.then, %entry
  %call7 = call noundef ptr @_ZN3zmq14encoder_base_tINS_12v2_encoder_tEE11in_progressEv(ptr noundef nonnull align 8 dereferenceable(72) %this1)
  %call8 = call noundef i64 @_ZNK3zmq5msg_t4sizeEv(ptr noundef nonnull align 8 dereferenceable(64) %call7)
  %cmp = icmp ugt i64 %call8, 255
  br i1 %cmp, label %if.then9, label %if.end13

if.then9:                                         ; preds = %if.end
  %3 = load ptr, ptr %protocol_flags, align 8
  %4 = load i8, ptr %3, align 1
  %conv10 = zext i8 %4 to i32
  %or11 = or i32 %conv10, 2
  %conv12 = trunc i32 %or11 to i8
  store i8 %conv12, ptr %3, align 1
  br label %if.end13

if.end13:                                         ; preds = %if.then9, %if.end
  %call14 = call noundef ptr @_ZN3zmq14encoder_base_tINS_12v2_encoder_tEE11in_progressEv(ptr noundef nonnull align 8 dereferenceable(72) %this1)
  %call15 = call noundef zeroext i8 @_ZNK3zmq5msg_t5flagsEv(ptr noundef nonnull align 8 dereferenceable(64) %call14)
  %conv16 = zext i8 %call15 to i32
  %and17 = and i32 %conv16, 2
  %tobool18 = icmp ne i32 %and17, 0
  br i1 %tobool18, label %if.then19, label %if.end23

if.then19:                                        ; preds = %if.end13
  %5 = load ptr, ptr %protocol_flags, align 8
  %6 = load i8, ptr %5, align 1
  %conv20 = zext i8 %6 to i32
  %or21 = or i32 %conv20, 4
  %conv22 = trunc i32 %or21 to i8
  store i8 %conv22, ptr %5, align 1
  br label %if.end23

if.end23:                                         ; preds = %if.then19, %if.end13
  %call24 = call noundef ptr @_ZN3zmq14encoder_base_tINS_12v2_encoder_tEE11in_progressEv(ptr noundef nonnull align 8 dereferenceable(72) %this1)
  %call25 = call noundef zeroext i1 @_ZNK3zmq5msg_t12is_subscribeEv(ptr noundef nonnull align 8 dereferenceable(64) %call24)
  br i1 %call25, label %if.then28, label %lor.lhs.false

lor.lhs.false:                                    ; preds = %if.end23
  %call26 = call noundef ptr @_ZN3zmq14encoder_base_tINS_12v2_encoder_tEE11in_progressEv(ptr noundef nonnull align 8 dereferenceable(72) %this1)
  %call27 = call noundef zeroext i1 @_ZNK3zmq5msg_t9is_cancelEv(ptr noundef nonnull align 8 dereferenceable(64) %call26)
  br i1 %call27, label %if.then28, label %if.end29

if.then28:                                        ; preds = %lor.lhs.false, %if.end23
  %7 = load i64, ptr %size, align 8
  %inc = add i64 %7, 1
  store i64 %inc, ptr %size, align 8
  br label %if.end29

if.end29:                                         ; preds = %if.then28, %lor.lhs.false
  %8 = load i64, ptr %size, align 8
  %cmp30 = icmp ugt i64 %8, 255
  br i1 %cmp30, label %if.then32, label %if.else

if.then32:                                        ; preds = %if.end29
  %_tmp_buf33 = getelementptr inbounds %"class.zmq::v2_encoder_t", ptr %this1, i32 0, i32 1
  %arraydecay = getelementptr inbounds [10 x i8], ptr %_tmp_buf33, i64 0, i64 0
  %add.ptr = getelementptr inbounds i8, ptr %arraydecay, i64 1
  %9 = load i64, ptr %size, align 8
  call void @_ZN3zmq10put_uint64EPhm(ptr noundef %add.ptr, i64 noundef %9)
  store i64 9, ptr %header_size, align 8
  br label %if.end37

if.else:                                          ; preds = %if.end29
  %10 = load i64, ptr %size, align 8
  %conv34 = trunc i64 %10 to i8
  %_tmp_buf35 = getelementptr inbounds %"class.zmq::v2_encoder_t", ptr %this1, i32 0, i32 1
  %arrayidx36 = getelementptr inbounds [10 x i8], ptr %_tmp_buf35, i64 0, i64 1
  store i8 %conv34, ptr %arrayidx36, align 1
  br label %if.end37

if.end37:                                         ; preds = %if.else, %if.then32
  %call38 = call noundef ptr @_ZN3zmq14encoder_base_tINS_12v2_encoder_tEE11in_progressEv(ptr noundef nonnull align 8 dereferenceable(72) %this1)
  %call39 = call noundef zeroext i1 @_ZNK3zmq5msg_t12is_subscribeEv(ptr noundef nonnull align 8 dereferenceable(64) %call38)
  br i1 %call39, label %if.then40, label %if.else44

if.then40:                                        ; preds = %if.end37
  %_tmp_buf41 = getelementptr inbounds %"class.zmq::v2_encoder_t", ptr %this1, i32 0, i32 1
  %11 = load i64, ptr %header_size, align 8
  %inc42 = add i64 %11, 1
  store i64 %inc42, ptr %header_size, align 8
  %arrayidx43 = getelementptr inbounds [10 x i8], ptr %_tmp_buf41, i64 0, i64 %11
  store i8 1, ptr %arrayidx43, align 1
  br label %if.end52

if.else44:                                        ; preds = %if.end37
  %call45 = call noundef ptr @_ZN3zmq14encoder_base_tINS_12v2_encoder_tEE11in_progressEv(ptr noundef nonnull align 8 dereferenceable(72) %this1)
  %call46 = call noundef zeroext i1 @_ZNK3zmq5msg_t9is_cancelEv(ptr noundef nonnull align 8 dereferenceable(64) %call45)
  br i1 %call46, label %if.then47, label %if.end51

if.then47:                                        ; preds = %if.else44
  %_tmp_buf48 = getelementptr inbounds %"class.zmq::v2_encoder_t", ptr %this1, i32 0, i32 1
  %12 = load i64, ptr %header_size, align 8
  %inc49 = add i64 %12, 1
  store i64 %inc49, ptr %header_size, align 8
  %arrayidx50 = getelementptr inbounds [10 x i8], ptr %_tmp_buf48, i64 0, i64 %12
  store i8 0, ptr %arrayidx50, align 1
  br label %if.end51

if.end51:                                         ; preds = %if.then47, %if.else44
  br label %if.end52

if.end52:                                         ; preds = %if.end51, %if.then40
  %_tmp_buf53 = getelementptr inbounds %"class.zmq::v2_encoder_t", ptr %this1, i32 0, i32 1
  %arraydecay54 = getelementptr inbounds [10 x i8], ptr %_tmp_buf53, i64 0, i64 0
  %13 = load i64, ptr %header_size, align 8
  store { i64, i64 } { i64 ptrtoint (ptr @_ZN3zmq12v2_encoder_t10size_readyEv to i64), i64 0 }, ptr %coerce, align 8
  %14 = getelementptr inbounds { i64, i64 }, ptr %coerce, i32 0, i32 0
  %15 = load i64, ptr %14, align 8
  %16 = getelementptr inbounds { i64, i64 }, ptr %coerce, i32 0, i32 1
  %17 = load i64, ptr %16, align 8
  call void @_ZN3zmq14encoder_base_tINS_12v2_encoder_tEE9next_stepEPvmMS1_FvvEb(ptr noundef nonnull align 8 dereferenceable(72) %this1, ptr noundef %arraydecay54, i64 noundef %13, i64 %15, i64 %17, i1 noundef zeroext false)
  ret void
}