; Function Attrs: mustprogress uwtable
define void @_ZN3zmq12v2_encoder_t13message_readyEv(ptr noundef nonnull align 8 dereferenceable(88) %this) #0 align 2 {
entry:
  %_in_progress.i = getelementptr inbounds i8, ptr %this, i64 64
  %0 = load ptr, ptr %_in_progress.i, align 8
  %call2 = tail call noundef i64 @_ZNK3zmq5msg_t4sizeEv(ptr noundef nonnull align 8 dereferenceable(64) %0)
  %_tmp_buf = getelementptr inbounds i8, ptr %this, i64 72
  store i8 0, ptr %_tmp_buf, align 8
  %1 = load ptr, ptr %_in_progress.i, align 8
  %call4 = tail call noundef zeroext i8 @_ZNK3zmq5msg_t5flagsEv(ptr noundef nonnull align 8 dereferenceable(64) %1)
  %2 = and i8 %call4, 1
  %tobool.not = icmp eq i8 %2, 0
  br i1 %tobool.not, label %if.end, label %if.then

if.then:                                          ; preds = %entry
  %3 = load i8, ptr %_tmp_buf, align 8
  %4 = or i8 %3, 1
  store i8 %4, ptr %_tmp_buf, align 8
  br label %if.end

if.end:                                           ; preds = %if.then, %entry
  %5 = load ptr, ptr %_in_progress.i, align 8
  %call8 = tail call noundef i64 @_ZNK3zmq5msg_t4sizeEv(ptr noundef nonnull align 8 dereferenceable(64) %5)
  %cmp = icmp ugt i64 %call8, 255
  br i1 %cmp, label %if.then9, label %if.end13

if.then9:                                         ; preds = %if.end
  %6 = load i8, ptr %_tmp_buf, align 8
  %7 = or i8 %6, 2
  store i8 %7, ptr %_tmp_buf, align 8
  br label %if.end13

if.end13:                                         ; preds = %if.then9, %if.end
  %8 = load ptr, ptr %_in_progress.i, align 8
  %call15 = tail call noundef zeroext i8 @_ZNK3zmq5msg_t5flagsEv(ptr noundef nonnull align 8 dereferenceable(64) %8)
  %9 = and i8 %call15, 2
  %tobool18.not = icmp eq i8 %9, 0
  br i1 %tobool18.not, label %if.end23, label %if.then19

if.then19:                                        ; preds = %if.end13
  %10 = load i8, ptr %_tmp_buf, align 8
  %11 = or i8 %10, 4
  store i8 %11, ptr %_tmp_buf, align 8
  br label %if.end23

if.end23:                                         ; preds = %if.then19, %if.end13
  %12 = load ptr, ptr %_in_progress.i, align 8
  %flags.i = getelementptr inbounds i8, ptr %12, i64 43
  %13 = load i8, ptr %flags.i, align 1
  %14 = and i8 %13, 28
  switch i8 %14, label %if.end29 [
    i8 12, label %if.then28
    i8 16, label %if.then28
  ]

if.then28:                                        ; preds = %if.end23, %if.end23
  %inc = add i64 %call2, 1
  br label %if.end29

if.end29:                                         ; preds = %if.end23, %if.then28
  %size.0 = phi i64 [ %inc, %if.then28 ], [ %call2, %if.end23 ]
  %cmp30 = icmp ugt i64 %size.0, 255
  br i1 %cmp30, label %if.then32, label %if.end37

if.then32:                                        ; preds = %if.end29
  %shr.i = lshr i64 %size.0, 56
  %shr1.i = lshr i64 %size.0, 48
  %conv3.i = trunc i64 %shr1.i to i8
  %arrayidx4.i = getelementptr inbounds i8, ptr %this, i64 74
  store i8 %conv3.i, ptr %arrayidx4.i, align 2
  %shr5.i = lshr i64 %size.0, 40
  %conv7.i = trunc i64 %shr5.i to i8
  %arrayidx8.i = getelementptr inbounds i8, ptr %this, i64 75
  store i8 %conv7.i, ptr %arrayidx8.i, align 1
  %shr9.i = lshr i64 %size.0, 32
  %conv11.i = trunc i64 %shr9.i to i8
  %arrayidx12.i = getelementptr inbounds i8, ptr %this, i64 76
  store i8 %conv11.i, ptr %arrayidx12.i, align 4
  %shr13.i = lshr i64 %size.0, 24
  %conv15.i = trunc i64 %shr13.i to i8
  %arrayidx16.i = getelementptr inbounds i8, ptr %this, i64 77
  store i8 %conv15.i, ptr %arrayidx16.i, align 1
  %shr17.i = lshr i64 %size.0, 16
  %conv19.i = trunc i64 %shr17.i to i8
  %arrayidx20.i = getelementptr inbounds i8, ptr %this, i64 78
  store i8 %conv19.i, ptr %arrayidx20.i, align 2
  %shr21.i = lshr i64 %size.0, 8
  %conv23.i = trunc i64 %shr21.i to i8
  %arrayidx24.i = getelementptr inbounds i8, ptr %this, i64 79
  store i8 %conv23.i, ptr %arrayidx24.i, align 1
  %conv26.i = trunc i64 %size.0 to i8
  %arrayidx27.i = getelementptr inbounds i8, ptr %this, i64 80
  store i8 %conv26.i, ptr %arrayidx27.i, align 8
  br label %if.end37

if.end37:                                         ; preds = %if.end29, %if.then32
  %conv34.sink.in = phi i64 [ %shr.i, %if.then32 ], [ %size.0, %if.end29 ]
  %header_size.0 = phi i64 [ 9, %if.then32 ], [ 2, %if.end29 ]
  %conv34.sink = trunc i64 %conv34.sink.in to i8
  %15 = getelementptr inbounds i8, ptr %this, i64 73
  store i8 %conv34.sink, ptr %15, align 1
  %16 = load i8, ptr %flags.i, align 1
  %17 = and i8 %16, 28
  switch i8 %17, label %if.end52 [
    i8 12, label %if.end52.sink.split
    i8 16, label %if.then47
  ]

if.then47:                                        ; preds = %if.end37
  br label %if.end52.sink.split

if.end52.sink.split:                              ; preds = %if.end37, %if.then47
  %.sink = phi i8 [ 0, %if.then47 ], [ 1, %if.end37 ]
  %inc49 = add nuw nsw i64 %header_size.0, 1
  %arrayidx50 = getelementptr inbounds [10 x i8], ptr %_tmp_buf, i64 0, i64 %header_size.0
  store i8 %.sink, ptr %arrayidx50, align 1
  br label %if.end52

if.end52:                                         ; preds = %if.end52.sink.split, %if.end37
  %header_size.1 = phi i64 [ %header_size.0, %if.end37 ], [ %inc49, %if.end52.sink.split ]
  %_write_pos.i = getelementptr inbounds i8, ptr %this, i64 8
  store ptr %_tmp_buf, ptr %_write_pos.i, align 8
  %_to_write.i = getelementptr inbounds i8, ptr %this, i64 16
  store i64 %header_size.1, ptr %_to_write.i, align 8
  %_next.i = getelementptr inbounds i8, ptr %this, i64 24
  store i64 ptrtoint (ptr @_ZN3zmq12v2_encoder_t10size_readyEv to i64), ptr %_next.i, align 8
  %_next.repack1.i = getelementptr inbounds i8, ptr %this, i64 32
  store i64 0, ptr %_next.repack1.i, align 8
  %_new_msg_flag.i = getelementptr inbounds i8, ptr %this, i64 40
  store i8 0, ptr %_new_msg_flag.i, align 8
  ret void
}